; Function Attrs: nofree norecurse nosync nounwind memory(readwrite, inaccessiblemem: none) uwtable
define i64 @SUNDlsMat_DenseGETRF(ptr noundef readonly captures(none) %0, ptr noundef writeonly captures(none) %1) local_unnamed_addr #0 {
  %3 = getelementptr inbounds nuw i8, ptr %0, i64 72
  %4 = load ptr, ptr %3, align 8, !tbaa !3
  %5 = getelementptr inbounds nuw i8, ptr %0, i64 8
  %6 = load i64, ptr %5, align 8, !tbaa !12
  %7 = getelementptr inbounds nuw i8, ptr %0, i64 16
  %8 = load i64, ptr %7, align 8, !tbaa !13
  %9 = icmp sgt i64 %8, 0
  br i1 %9, label %.lr.ph91.i, label %SUNDlsMat_denseGETRF.exit

.loopexit75.i:                                    ; preds = %..loopexit_crit_edge.us.i, %.preheader74.i, %.loopexit77.i
  %exitcond103.not.i = icmp eq i64 %12, %8
  br i1 %exitcond103.not.i, label %SUNDlsMat_denseGETRF.exit, label %.lr.ph91.i

.lr.ph91.i:                                       ; preds = %2, %.loopexit75.i
  %.06889.i = phi i64 [ %12, %.loopexit75.i ], [ 0, %2 ]
  %10 = getelementptr inbounds nuw ptr, ptr %4, i64 %.06889.i
  %11 = load ptr, ptr %10, align 8, !tbaa !14
  %12 = add nuw nsw i64 %.06889.i, 1
  %13 = icmp slt i64 %12, %6
  br i1 %13, label %.lr.ph.i, label %._crit_edge.i

.lr.ph.i:                                         ; preds = %.lr.ph91.i, %.lr.ph.i
  %.06679.i = phi i64 [ %21, %.lr.ph.i ], [ %12, %.lr.ph91.i ]
  %.06978.i = phi i64 [ %.170.i, %.lr.ph.i ], [ %.06889.i, %.lr.ph91.i ]
  %14 = getelementptr inbounds nuw double, ptr %11, i64 %.06679.i
  %15 = load double, ptr %14, align 8, !tbaa !15
  %16 = tail call double @llvm.fabs.f64(double %15)
  %17 = getelementptr inbounds double, ptr %11, i64 %.06978.i
  %18 = load double, ptr %17, align 8, !tbaa !15
  %19 = tail call double @llvm.fabs.f64(double %18)
  %20 = fcmp ogt double %16, %19
  %.170.i = select i1 %20, i64 %.06679.i, i64 %.06978.i
  %21 = add nuw nsw i64 %.06679.i, 1
  %exitcond.not.i = icmp eq i64 %21, %6
  br i1 %exitcond.not.i, label %._crit_edge.i, label %.lr.ph.i

._crit_edge.i:                                    ; preds = %.lr.ph.i, %.lr.ph91.i
  %.069.lcssa.i = phi i64 [ %.06889.i, %.lr.ph91.i ], [ %.170.i, %.lr.ph.i ]
  %22 = getelementptr inbounds nuw i64, ptr %1, i64 %.06889.i
  store i64 %.069.lcssa.i, ptr %22, align 8, !tbaa !17
  %23 = getelementptr inbounds double, ptr %11, i64 %.069.lcssa.i
  %24 = load double, ptr %23, align 8, !tbaa !15
  %25 = fcmp oeq double %24, 0.000000e+00
  br i1 %25, label %SUNDlsMat_denseGETRF.exit, label %26

26:                                               ; preds = %._crit_edge.i
  %.not.i = icmp eq i64 %.069.lcssa.i, %.06889.i
  br i1 %.not.i, label %.loopexit77.i, label %.lr.ph81.i

.lr.ph81.i:                                       ; preds = %26, %.lr.ph81.i
  %.180.i = phi i64 [ %33, %.lr.ph81.i ], [ 0, %26 ]
  %27 = getelementptr inbounds nuw ptr, ptr %4, i64 %.180.i
  %28 = load ptr, ptr %27, align 8, !tbaa !14
  %29 = getelementptr inbounds double, ptr %28, i64 %.069.lcssa.i
  %30 = load double, ptr %29, align 8, !tbaa !15
  %31 = getelementptr inbounds nuw double, ptr %28, i64 %.06889.i
  %32 = load double, ptr %31, align 8, !tbaa !15
  store double %32, ptr %29, align 8, !tbaa !15
  store double %30, ptr %31, align 8, !tbaa !15
  %33 = add nuw nsw i64 %.180.i, 1
  %exitcond99.not.i = icmp eq i64 %33, %8
  br i1 %exitcond99.not.i, label %.loopexit77.i, label %.lr.ph81.i

.loopexit77.i:                                    ; preds = %.lr.ph81.i, %26
  %34 = getelementptr inbounds nuw double, ptr %11, i64 %.06889.i
  %35 = load double, ptr %34, align 8, !tbaa !15
  %36 = fdiv double 1.000000e+00, %35
  br i1 %13, label %.lr.ph84.i, label %.loopexit75.i

.preheader74.i:                                   ; preds = %.lr.ph84.i
  %.not106.i = icmp slt i64 %12, %8
  br i1 %.not106.i, label %.lr.ph88.split.us.i, label %.loopexit75.i

.lr.ph88.split.us.i:                              ; preds = %.preheader74.i, %..loopexit_crit_edge.us.i
  %.06787.us.i = phi i64 [ %42, %..loopexit_crit_edge.us.i ], [ %12, %.preheader74.i ]
  %37 = getelementptr inbounds nuw ptr, ptr %4, i64 %.06787.us.i
  %38 = load ptr, ptr %37, align 8, !tbaa !14
  %39 = getelementptr inbounds nuw double, ptr %38, i64 %.06889.i
  %40 = load double, ptr %39, align 8, !tbaa !15
  %41 = fcmp une double %40, 0.000000e+00
  br i1 %41, label %.preheader.us.i, label %..loopexit_crit_edge.us.i

..loopexit_crit_edge.us.i:                        ; preds = %43, %.lr.ph88.split.us.i
  %42 = add nuw nsw i64 %.06787.us.i, 1
  %exitcond102.not.i = icmp eq i64 %42, %8
  br i1 %exitcond102.not.i, label %.loopexit75.i, label %.lr.ph88.split.us.i

43:                                               ; preds = %.preheader.us.i, %43
  %.385.us.i = phi i64 [ %12, %.preheader.us.i ], [ %49, %43 ]
  %44 = getelementptr inbounds nuw double, ptr %11, i64 %.385.us.i
  %45 = load double, ptr %44, align 8, !tbaa !15
  %46 = getelementptr inbounds nuw double, ptr %38, i64 %.385.us.i
  %47 = load double, ptr %46, align 8, !tbaa !15
  %48 = tail call double @llvm.fmuladd.f64(double %50, double %45, double %47)
  store double %48, ptr %46, align 8, !tbaa !15
  %49 = add nuw nsw i64 %.385.us.i, 1
  %exitcond101.not.i = icmp eq i64 %49, %6
  br i1 %exitcond101.not.i, label %..loopexit_crit_edge.us.i, label %43

.preheader.us.i:                                  ; preds = %.lr.ph88.split.us.i
  %50 = fneg double %40
  br label %43

.lr.ph84.i:                                       ; preds = %.loopexit77.i, %.lr.ph84.i
  %.282.i = phi i64 [ %54, %.lr.ph84.i ], [ %12, %.loopexit77.i ]
  %51 = getelementptr inbounds nuw double, ptr %11, i64 %.282.i
  %52 = load double, ptr %51, align 8, !tbaa !15
  %53 = fmul double %36, %52
  store double %53, ptr %51, align 8, !tbaa !15
  %54 = add nuw nsw i64 %.282.i, 1
  %exitcond100.not.i = icmp eq i64 %54, %6
  br i1 %exitcond100.not.i, label %.preheader74.i, label %.lr.ph84.i

SUNDlsMat_denseGETRF.exit:                        ; preds = %.loopexit75.i, %._crit_edge.i, %2
  %.0.i = phi i64 [ 0, %2 ], [ %12, %._crit_edge.i ], [ 0, %.loopexit75.i ]
  ret i64 %.0.i
}